target datalayout = "e-m:e-p270:32:32-p271:32:32-p272:64:64-i64:64-i128:128-f80:128-n8:16:32:64-S128"
target triple = "x86_64-pc-linux-gnu"

@.str.14 = private unnamed_addr constant [5 x i8] c": %s\00", align 1
@hf_eapwps_wfa_ext_id = internal global i32 0, align 4
@hf_eapwps_wfa_ext_len = internal global i32 0, align 4
@hf_eapwps_wfa_ext_version2 = internal global i32 0, align 4
@hf_eapwps_wfa_ext_authorizedmacs = internal global i32 0, align 4
@hf_eapwps_wfa_ext_network_key_shareable = internal global i32 0, align 4
@hf_eapwps_wfa_ext_request_to_enroll = internal global i32 0, align 4
@hf_eapwps_wfa_ext_settings_delay_time = internal global i32 0, align 4
@hf_multi_ap_flags = internal global i32 0, align 4
@hf_multi_ap_profiles = internal global i32 0, align 4
@hf_multi_ap_8021q = internal global i32 0, align 4
@ett_wps_wfa_ext = internal global i32 0, align 4
@ett_multi_ap_flags = internal global i32 0, align 4
@.str.380 = private unnamed_addr constant [13 x i8] c"Unknown (%u)\00", align 1
@.str.381 = private unnamed_addr constant [8 x i8] c": %d.%d\00", align 1
@.str.382 = private unnamed_addr constant [5 x i8] c"TRUE\00", align 1
@.str.383 = private unnamed_addr constant [6 x i8] c"FALSE\00", align 1
@.str.384 = private unnamed_addr constant [15 x i8] c": %d second(s)\00", align 1

; Function Attrs: null_pointer_is_valid sspstrong uwtable
define internal void @add_wps_wfa_ext(i8 noundef zeroext %0, ptr noundef %1, ptr noundef %2, i32 noundef %3, i32 noundef %4) #0 {
  %6 = alloca i8, align 1
  %7 = alloca ptr, align 8
  %8 = alloca ptr, align 8
  %9 = alloca i32, align 4
  %10 = alloca i32, align 4
  %11 = alloca ptr, align 8
  %12 = alloca ptr, align 8
  %13 = alloca i8, align 1
  store i8 %0, ptr %6, align 1
  store ptr %1, ptr %7, align 8
  store ptr %2, ptr %8, align 8
  store i32 %3, ptr %9, align 4
  store i32 %4, ptr %10, align 4
  call void @llvm.lifetime.start.p0(i64 8, ptr %11) #3
  call void @llvm.lifetime.start.p0(i64 8, ptr %12) #3
  call void @llvm.lifetime.start.p0(i64 1, ptr %13) #3
  %14 = load ptr, ptr %7, align 8
  %15 = load ptr, ptr %8, align 8
  %16 = load i32, ptr %9, align 4
  %17 = sub i32 %16, 2
  %18 = load i32, ptr %10, align 4
  %19 = add i32 2, %18
  %20 = load i32, ptr @ett_wps_wfa_ext, align 4
  %21 = load i8, ptr %6, align 1
  %22 = zext i8 %21 to i32
  %23 = call ptr @val_to_str(i32 noundef %22, ptr noundef @eapwps_wfa_ext_types, ptr noundef @.str.380)
  %24 = call ptr @proto_tree_add_subtree(ptr noundef %14, ptr noundef %15, i32 noundef %17, i32 noundef %19, i32 noundef %20, ptr noundef %11, ptr noundef %23)
  store ptr %24, ptr %12, align 8
  %25 = load ptr, ptr %12, align 8
  %26 = load i32, ptr @hf_eapwps_wfa_ext_id, align 4
  %27 = load ptr, ptr %8, align 8
  %28 = load i32, ptr %9, align 4
  %29 = sub i32 %28, 2
  %30 = call ptr @proto_tree_add_item(ptr noundef %25, i32 noundef %26, ptr noundef %27, i32 noundef %29, i32 noundef 1, i32 noundef 0)
  %31 = load ptr, ptr %12, align 8
  %32 = load i32, ptr @hf_eapwps_wfa_ext_len, align 4
  %33 = load ptr, ptr %8, align 8
  %34 = load i32, ptr %9, align 4
  %35 = sub i32 %34, 1
  %36 = call ptr @proto_tree_add_item(ptr noundef %31, i32 noundef %32, ptr noundef %33, i32 noundef %35, i32 noundef 1, i32 noundef 0)
  %37 = load i8, ptr %6, align 1
  %38 = zext i8 %37 to i32
  switch i32 %38, label %123 [
    i32 0, label %39
    i32 1, label %55
    i32 2, label %62
    i32 3, label %76
    i32 4, label %90
    i32 6, label %102
    i32 7, label %111
    i32 8, label %117
  ]

39:                                               ; preds = %5
  %40 = load ptr, ptr %8, align 8
  %41 = load i32, ptr %9, align 4
  %42 = call zeroext i8 @tvb_get_uint8(ptr noundef %40, i32 noundef %41)
  store i8 %42, ptr %13, align 1
  %43 = load ptr, ptr %11, align 8
  %44 = load i8, ptr %13, align 1
  %45 = zext i8 %44 to i32
  %46 = ashr i32 %45, 4
  %47 = load i8, ptr %13, align 1
  %48 = zext i8 %47 to i32
  %49 = and i32 %48, 15
  call void (ptr, ptr, ...) @proto_item_append_text(ptr noundef %43, ptr noundef @.str.381, i32 noundef %46, i32 noundef %49)
  %50 = load ptr, ptr %12, align 8
  %51 = load i32, ptr @hf_eapwps_wfa_ext_version2, align 4
  %52 = load ptr, ptr %8, align 8
  %53 = load i32, ptr %9, align 4
  %54 = call ptr @proto_tree_add_item(ptr noundef %50, i32 noundef %51, ptr noundef %52, i32 noundef %53, i32 noundef 1, i32 noundef 0)
  br label %124

55:                                               ; preds = %5
  %56 = load ptr, ptr %12, align 8
  %57 = load i32, ptr @hf_eapwps_wfa_ext_authorizedmacs, align 4
  %58 = load ptr, ptr %8, align 8
  %59 = load i32, ptr %9, align 4
  %60 = load i32, ptr %10, align 4
  %61 = call ptr @proto_tree_add_item(ptr noundef %56, i32 noundef %57, ptr noundef %58, i32 noundef %59, i32 noundef %60, i32 noundef 0)
  br label %124

62:                                               ; preds = %5
  %63 = load ptr, ptr %8, align 8
  %64 = load i32, ptr %9, align 4
  %65 = call zeroext i8 @tvb_get_uint8(ptr noundef %63, i32 noundef %64)
  store i8 %65, ptr %13, align 1
  %66 = load ptr, ptr %11, align 8
  %67 = load i8, ptr %13, align 1
  %68 = zext i8 %67 to i32
  %69 = icmp ne i32 %68, 0
  %70 = select i1 %69, ptr @.str.382, ptr @.str.383
  call void (ptr, ptr, ...) @proto_item_append_text(ptr noundef %66, ptr noundef @.str.14, ptr noundef %70)
  %71 = load ptr, ptr %12, align 8
  %72 = load i32, ptr @hf_eapwps_wfa_ext_network_key_shareable, align 4
  %73 = load ptr, ptr %8, align 8
  %74 = load i32, ptr %9, align 4
  %75 = call ptr @proto_tree_add_item(ptr noundef %71, i32 noundef %72, ptr noundef %73, i32 noundef %74, i32 noundef 1, i32 noundef 0)
  br label %124

76:                                               ; preds = %5
  %77 = load ptr, ptr %8, align 8
  %78 = load i32, ptr %9, align 4
  %79 = call zeroext i8 @tvb_get_uint8(ptr noundef %77, i32 noundef %78)
  store i8 %79, ptr %13, align 1
  %80 = load ptr, ptr %11, align 8
  %81 = load i8, ptr %13, align 1
  %82 = zext i8 %81 to i32
  %83 = icmp ne i32 %82, 0
  %84 = select i1 %83, ptr @.str.382, ptr @.str.383
  call void (ptr, ptr, ...) @proto_item_append_text(ptr noundef %80, ptr noundef @.str.14, ptr noundef %84)
  %85 = load ptr, ptr %12, align 8
  %86 = load i32, ptr @hf_eapwps_wfa_ext_request_to_enroll, align 4
  %87 = load ptr, ptr %8, align 8
  %88 = load i32, ptr %9, align 4
  %89 = call ptr @proto_tree_add_item(ptr noundef %85, i32 noundef %86, ptr noundef %87, i32 noundef %88, i32 noundef 1, i32 noundef 0)
  br label %124

90:                                               ; preds = %5
  %91 = load ptr, ptr %8, align 8
  %92 = load i32, ptr %9, align 4
  %93 = call zeroext i8 @tvb_get_uint8(ptr noundef %91, i32 noundef %92)
  store i8 %93, ptr %13, align 1
  %94 = load ptr, ptr %11, align 8
  %95 = load i8, ptr %13, align 1
  %96 = zext i8 %95 to i32
  call void (ptr, ptr, ...) @proto_item_append_text(ptr noundef %94, ptr noundef @.str.384, i32 noundef %96)
  %97 = load ptr, ptr %12, align 8
  %98 = load i32, ptr @hf_eapwps_wfa_ext_settings_delay_time, align 4
  %99 = load ptr, ptr %8, align 8
  %100 = load i32, ptr %9, align 4
  %101 = call ptr @proto_tree_add_item(ptr noundef %97, i32 noundef %98, ptr noundef %99, i32 noundef %100, i32 noundef 1, i32 noundef 0)
  br label %124

102:                                              ; preds = %5
  %103 = load ptr, ptr %12, align 8
  %104 = load ptr, ptr %8, align 8
  %105 = load i32, ptr %9, align 4
  %106 = load i32, ptr @hf_multi_ap_flags, align 4
  %107 = load i32, ptr @ett_multi_ap_flags, align 4
  %108 = call ptr @proto_tree_add_bitmask(ptr noundef %103, ptr noundef %104, i32 noundef %105, i32 noundef %106, i32 noundef %107, ptr noundef @add_wps_wfa_ext.flags, i32 noundef 0)
  %109 = load i32, ptr %9, align 4
  %110 = add i32 %109, 1
  store i32 %110, ptr %9, align 4
  br label %124

111:                                              ; preds = %5
  %112 = load ptr, ptr %12, align 8
  %113 = load i32, ptr @hf_multi_ap_profiles, align 4
  %114 = load ptr, ptr %8, align 8
  %115 = load i32, ptr %9, align 4
  %116 = call ptr @proto_tree_add_item(ptr noundef %112, i32 noundef %113, ptr noundef %114, i32 noundef %115, i32 noundef 1, i32 noundef 0)
  br label %124

117:                                              ; preds = %5
  %118 = load ptr, ptr %12, align 8
  %119 = load i32, ptr @hf_multi_ap_8021q, align 4
  %120 = load ptr, ptr %8, align 8
  %121 = load i32, ptr %9, align 4
  %122 = call ptr @proto_tree_add_item(ptr noundef %118, i32 noundef %119, ptr noundef %120, i32 noundef %121, i32 noundef 2, i32 noundef -2147483648)
  br label %124

123:                                              ; preds = %5
  br label %124

124:                                              ; preds = %123, %117, %111, %102, %90, %76, %62, %55, %39
  call void @llvm.lifetime.end.p0(i64 1, ptr %13) #3
  call void @llvm.lifetime.end.p0(i64 8, ptr %12) #3
  call void @llvm.lifetime.end.p0(i64 8, ptr %11) #3
  ret void
}

; Function Attrs: null_pointer_is_valid sspstrong uwtable
define internal void @dissect_wps_wfa_ext(ptr noundef %0, ptr noundef %1, i32 noundef %2, i32 noundef %3) #0 {
  %5 = alloca ptr, align 8
  %6 = alloca ptr, align 8
  %7 = alloca i32, align 4
  %8 = alloca i32, align 4
  %9 = alloca i32, align 4
  %10 = alloca i32, align 4
  %11 = alloca i8, align 1
  %12 = alloca i8, align 1
  store ptr %0, ptr %5, align 8
  store ptr %1, ptr %6, align 8
  store i32 %2, ptr %7, align 4
  store i32 %3, ptr %8, align 4
  call void @llvm.lifetime.start.p0(i64 4, ptr %9) #3
  %13 = load i32, ptr %7, align 4
  store i32 %13, ptr %9, align 4
  call void @llvm.lifetime.start.p0(i64 4, ptr %10) #3
  %14 = load i32, ptr %7, align 4
  %15 = load i32, ptr %8, align 4
  %16 = add i32 %14, %15
  store i32 %16, ptr %10, align 4
  call void @llvm.lifetime.start.p0(i64 1, ptr %11) #3
  call void @llvm.lifetime.start.p0(i64 1, ptr %12) #3
  br label %17

17:                                               ; preds = %38, %4
  %18 = load i32, ptr %9, align 4
  %19 = add i32 %18, 2
  %20 = load i32, ptr %10, align 4
  %21 = icmp slt i32 %19, %20
  br i1 %21, label %22, label %51

22:                                               ; preds = %17
  %23 = load ptr, ptr %6, align 8
  %24 = load i32, ptr %9, align 4
  %25 = call zeroext i8 @tvb_get_uint8(ptr noundef %23, i32 noundef %24)
  store i8 %25, ptr %11, align 1
  %26 = load ptr, ptr %6, align 8
  %27 = load i32, ptr %9, align 4
  %28 = add i32 %27, 1
  %29 = call zeroext i8 @tvb_get_uint8(ptr noundef %26, i32 noundef %28)
  store i8 %29, ptr %12, align 1
  %30 = load i32, ptr %9, align 4
  %31 = add i32 %30, 2
  %32 = load i8, ptr %12, align 1
  %33 = zext i8 %32 to i32
  %34 = add i32 %31, %33
  %35 = load i32, ptr %10, align 4
  %36 = icmp sgt i32 %34, %35
  br i1 %36, label %37, label %38

37:                                               ; preds = %22
  br label %51

38:                                               ; preds = %22
  %39 = load i32, ptr %9, align 4
  %40 = add i32 %39, 2
  store i32 %40, ptr %9, align 4
  %41 = load i8, ptr %11, align 1
  %42 = load ptr, ptr %5, align 8
  %43 = load ptr, ptr %6, align 8
  %44 = load i32, ptr %9, align 4
  %45 = load i8, ptr %12, align 1
  %46 = zext i8 %45 to i32
  call void @add_wps_wfa_ext(i8 noundef zeroext %41, ptr noundef %42, ptr noundef %43, i32 noundef %44, i32 noundef %46)
  %47 = load i8, ptr %12, align 1
  %48 = zext i8 %47 to i32
  %49 = load i32, ptr %9, align 4
  %50 = add i32 %49, %48
  store i32 %50, ptr %9, align 4
  br label %17, !llvm.loop !8

51:                                               ; preds = %37, %17
  call void @llvm.lifetime.end.p0(i64 1, ptr %12) #3
  call void @llvm.lifetime.end.p0(i64 1, ptr %11) #3
  call void @llvm.lifetime.end.p0(i64 4, ptr %10) #3
  call void @llvm.lifetime.end.p0(i64 4, ptr %9) #3
  ret void
}