; Function Attrs: null_pointer_is_valid sspstrong uwtable
define internal fastcc void @dissect_wps_wfa_ext(ptr noundef %0, ptr noundef %1, i32 noundef %2, i32 noundef %3) unnamed_addr #0 {
  %5 = alloca ptr, align 8
  %6 = add i32 %3, %2
  %7 = add i32 %2, 2
  %8 = icmp slt i32 %7, %6
  br i1 %8, label %.lr.ph, label %._crit_edge

.lr.ph:                                           ; preds = %4, %add_wps_wfa_ext.exit
  %9 = phi i32 [ %65, %add_wps_wfa_ext.exit ], [ %7, %4 ]
  %.022 = phi i32 [ %14, %add_wps_wfa_ext.exit ], [ %2, %4 ]
  %10 = call zeroext i8 @tvb_get_uint8(ptr noundef %1, i32 noundef %.022)
  %11 = add i32 %.022, 1
  %12 = call zeroext i8 @tvb_get_uint8(ptr noundef %1, i32 noundef %11)
  %13 = zext i8 %12 to i32
  %14 = add i32 %9, %13
  %15 = icmp sgt i32 %14, %6
  br i1 %15, label %._crit_edge, label %16

16:                                               ; preds = %.lr.ph
  call void @llvm.lifetime.start.p0(i64 8, ptr nonnull %5) #3
  %17 = add nuw nsw i32 %13, 2
  %18 = load i32, ptr @ett_wps_wfa_ext, align 4
  %19 = zext i8 %10 to i32
  %20 = call ptr @val_to_str(i32 noundef %19, ptr noundef nonnull @eapwps_wfa_ext_types, ptr noundef nonnull @.str.380)
  %21 = call ptr @proto_tree_add_subtree(ptr noundef %0, ptr noundef %1, i32 noundef %.022, i32 noundef %17, i32 noundef %18, ptr noundef nonnull %5, ptr noundef %20)
  %22 = load i32, ptr @hf_eapwps_wfa_ext_id, align 4
  %23 = call ptr @proto_tree_add_item(ptr noundef %21, i32 noundef %22, ptr noundef %1, i32 noundef %.022, i32 noundef 1, i32 noundef 0)
  %24 = load i32, ptr @hf_eapwps_wfa_ext_len, align 4
  %25 = call ptr @proto_tree_add_item(ptr noundef %21, i32 noundef %24, ptr noundef %1, i32 noundef %11, i32 noundef 1, i32 noundef 0)
  switch i8 %10, label %add_wps_wfa_ext.exit [
    i8 0, label %26
    i8 1, label %34
    i8 2, label %37
    i8 3, label %43
    i8 4, label %49
    i8 6, label %55
    i8 7, label %59
    i8 8, label %62
  ]

26:                                               ; preds = %16
  %27 = call zeroext i8 @tvb_get_uint8(ptr noundef %1, i32 noundef %9)
  %28 = load ptr, ptr %5, align 8
  %29 = zext i8 %27 to i32
  %30 = lshr i32 %29, 4
  %31 = and i32 %29, 15
  call void (ptr, ptr, ...) @proto_item_append_text(ptr noundef %28, ptr noundef nonnull @.str.381, i32 noundef %30, i32 noundef %31)
  %32 = load i32, ptr @hf_eapwps_wfa_ext_version2, align 4
  %33 = call ptr @proto_tree_add_item(ptr noundef %21, i32 noundef %32, ptr noundef %1, i32 noundef %9, i32 noundef 1, i32 noundef 0)
  br label %add_wps_wfa_ext.exit

34:                                               ; preds = %16
  %35 = load i32, ptr @hf_eapwps_wfa_ext_authorizedmacs, align 4
  %36 = call ptr @proto_tree_add_item(ptr noundef %21, i32 noundef %35, ptr noundef %1, i32 noundef %9, i32 noundef range(i32 0, 256) %13, i32 noundef 0)
  br label %add_wps_wfa_ext.exit

37:                                               ; preds = %16
  %38 = call zeroext i8 @tvb_get_uint8(ptr noundef %1, i32 noundef %9)
  %39 = load ptr, ptr %5, align 8
  %.not50.i = icmp eq i8 %38, 0
  %40 = select i1 %.not50.i, ptr @.str.383, ptr @.str.382
  call void (ptr, ptr, ...) @proto_item_append_text(ptr noundef %39, ptr noundef nonnull @.str.14, ptr noundef nonnull %40)
  %41 = load i32, ptr @hf_eapwps_wfa_ext_network_key_shareable, align 4
  %42 = call ptr @proto_tree_add_item(ptr noundef %21, i32 noundef %41, ptr noundef %1, i32 noundef %9, i32 noundef 1, i32 noundef 0)
  br label %add_wps_wfa_ext.exit

43:                                               ; preds = %16
  %44 = call zeroext i8 @tvb_get_uint8(ptr noundef %1, i32 noundef %9)
  %45 = load ptr, ptr %5, align 8
  %.not.i = icmp eq i8 %44, 0
  %46 = select i1 %.not.i, ptr @.str.383, ptr @.str.382
  call void (ptr, ptr, ...) @proto_item_append_text(ptr noundef %45, ptr noundef nonnull @.str.14, ptr noundef nonnull %46)
  %47 = load i32, ptr @hf_eapwps_wfa_ext_request_to_enroll, align 4
  %48 = call ptr @proto_tree_add_item(ptr noundef %21, i32 noundef %47, ptr noundef %1, i32 noundef %9, i32 noundef 1, i32 noundef 0)
  br label %add_wps_wfa_ext.exit

49:                                               ; preds = %16
  %50 = call zeroext i8 @tvb_get_uint8(ptr noundef %1, i32 noundef %9)
  %51 = load ptr, ptr %5, align 8
  %52 = zext i8 %50 to i32
  call void (ptr, ptr, ...) @proto_item_append_text(ptr noundef %51, ptr noundef nonnull @.str.384, i32 noundef %52)
  %53 = load i32, ptr @hf_eapwps_wfa_ext_settings_delay_time, align 4
  %54 = call ptr @proto_tree_add_item(ptr noundef %21, i32 noundef %53, ptr noundef %1, i32 noundef %9, i32 noundef 1, i32 noundef 0)
  br label %add_wps_wfa_ext.exit

55:                                               ; preds = %16
  %56 = load i32, ptr @hf_multi_ap_flags, align 4
  %57 = load i32, ptr @ett_multi_ap_flags, align 4
  %58 = call ptr @proto_tree_add_bitmask(ptr noundef %21, ptr noundef %1, i32 noundef %9, i32 noundef %56, i32 noundef %57, ptr noundef nonnull @add_wps_wfa_ext.flags, i32 noundef 0)
  br label %add_wps_wfa_ext.exit

59:                                               ; preds = %16
  %60 = load i32, ptr @hf_multi_ap_profiles, align 4
  %61 = call ptr @proto_tree_add_item(ptr noundef %21, i32 noundef %60, ptr noundef %1, i32 noundef %9, i32 noundef 1, i32 noundef 0)
  br label %add_wps_wfa_ext.exit

62:                                               ; preds = %16
  %63 = load i32, ptr @hf_multi_ap_8021q, align 4
  %64 = call ptr @proto_tree_add_item(ptr noundef %21, i32 noundef %63, ptr noundef %1, i32 noundef %9, i32 noundef 2, i32 noundef -2147483648)
  br label %add_wps_wfa_ext.exit

add_wps_wfa_ext.exit:                             ; preds = %16, %26, %34, %37, %43, %49, %55, %59, %62
  call void @llvm.lifetime.end.p0(i64 8, ptr nonnull %5) #3
  %65 = add i32 %14, 2
  %66 = icmp slt i32 %65, %6
  br i1 %66, label %.lr.ph, label %._crit_edge, !llvm.loop !8

._crit_edge:                                      ; preds = %add_wps_wfa_ext.exit, %.lr.ph, %4
  ret void
}